target datalayout = "e-m:e-p270:32:32-p271:32:32-p272:64:64-i64:64-i128:128-f80:128-n8:16:32:64-S128"
target triple = "x86_64-pc-linux-gnu"

%struct.rb_io = type { i64, ptr, i32, i32, i32, i32, i64, ptr, %struct.rb_io_internal_buffer, %struct.rb_io_internal_buffer, i64, %struct.rb_io_encoding, ptr, %struct.rb_io_internal_buffer, ptr, i64, i32, i32, i64, i64, i64 }
%struct.rb_io_encoding = type { ptr, ptr, i32, i64 }
%struct.rb_io_internal_buffer = type <{ ptr, i32, i32, i32 }>

@rb_eIOError = dso_local global i64 0, align 8
@.str.4 = private unnamed_addr constant [21 x i8] c"uninitialized stream\00", align 1
@closed_stream = internal constant [14 x i8] c"closed stream\00", align 1

; Function Attrs: nounwind sspstrong uwtable
define dso_local i64 @rb_io_blocking_region_wait(ptr noundef %0, ptr noundef %1, ptr noundef %2, i32 noundef %3) #0 {
  %5 = alloca ptr, align 8
  %6 = alloca ptr, align 8
  %7 = alloca ptr, align 8
  %8 = alloca i32, align 4
  store ptr %0, ptr %5, align 8, !tbaa !7
  store ptr %1, ptr %6, align 8, !tbaa !12
  store ptr %2, ptr %7, align 8, !tbaa !12
  store i32 %3, ptr %8, align 4, !tbaa !13
  %9 = load ptr, ptr %6, align 8, !tbaa !12
  %10 = load ptr, ptr %7, align 8, !tbaa !12
  %11 = load ptr, ptr %5, align 8, !tbaa !7
  %12 = getelementptr inbounds nuw %struct.rb_io, ptr %11, i32 0, i32 2
  %13 = load i32, ptr %12, align 8, !tbaa !15
  %14 = load i32, ptr %8, align 4, !tbaa !13
  %15 = call i64 @rb_thread_io_blocking_call(ptr noundef %9, ptr noundef %10, i32 noundef %13, i32 noundef %14)
  ret i64 %15
}

; Function Attrs: nounwind sspstrong uwtable
define internal i64 @io_flush_buffer_async(i64 noundef %0) #0 {
  %2 = alloca i64, align 8
  %3 = alloca ptr, align 8
  store i64 %0, ptr %2, align 8, !tbaa !32
  call void @llvm.lifetime.start.p0(i64 8, ptr %3) #28
  %4 = load i64, ptr %2, align 8, !tbaa !32
  %5 = inttoptr i64 %4 to ptr
  store ptr %5, ptr %3, align 8, !tbaa !7
  %6 = load ptr, ptr %3, align 8, !tbaa !7
  %7 = load ptr, ptr %3, align 8, !tbaa !7
  %8 = call i64 @rb_io_blocking_region_wait(ptr noundef %6, ptr noundef @io_flush_buffer_sync, ptr noundef %7, i32 noundef 4)
  call void @llvm.lifetime.end.p0(i64 8, ptr %3) #28
  ret i64 %8
}

; Function Attrs: inlinehint nounwind sspstrong willreturn memory(none) uwtable
define internal zeroext i1 @RB_NIL_P(i64 noundef %0) #9 {
  %2 = alloca i64, align 8
  store i64 %0, ptr %2, align 8, !tbaa !32
  %3 = load i64, ptr %2, align 8, !tbaa !32
  %4 = icmp eq i64 %3, 4
  ret i1 %4
}

; Function Attrs: nounwind sspstrong uwtable
define internal void @io_fd_check_closed(i32 noundef %0) #0 {
  %2 = alloca i32, align 4
  store i32 %0, ptr %2, align 4, !tbaa !13
  %3 = load i32, ptr %2, align 4, !tbaa !13
  %4 = icmp slt i32 %3, 0
  br i1 %4, label %5, label %7

5:                                                ; preds = %1
  call void @rb_thread_check_ints()
  %6 = load i64, ptr @rb_eIOError, align 8, !tbaa !32
  call void (i64, ptr, ...) @rb_raise(i64 noundef %6, ptr noundef @closed_stream) #31
  unreachable

7:                                                ; preds = %1
  ret void
}

; Function Attrs: nounwind sspstrong uwtable
define dso_local void @rb_io_check_initialized(ptr noundef %0) #0 {
  %2 = alloca ptr, align 8
  store ptr %0, ptr %2, align 8, !tbaa !7
  %3 = load ptr, ptr %2, align 8, !tbaa !7
  %4 = icmp ne ptr %3, null
  br i1 %4, label %7, label %5

5:                                                ; preds = %1
  %6 = load i64, ptr @rb_eIOError, align 8, !tbaa !32
  call void (i64, ptr, ...) @rb_raise(i64 noundef %6, ptr noundef @.str.4) #31
  unreachable

7:                                                ; preds = %1
  ret void
}

; Function Attrs: inlinehint nounwind sspstrong uwtable
define internal i32 @io_flush_buffer(ptr noundef %0) #6 {
  %2 = alloca i32, align 4
  %3 = alloca ptr, align 8
  store ptr %0, ptr %3, align 8, !tbaa !7
  %4 = load ptr, ptr %3, align 8, !tbaa !7
  %5 = getelementptr inbounds nuw %struct.rb_io, ptr %4, i32 0, i32 19
  %6 = load i64, ptr %5, align 8, !tbaa !55
  %7 = call zeroext i1 @RB_NIL_P(i64 noundef %6) #33
  br i1 %7, label %19, label %8

8:                                                ; preds = %1
  %9 = load ptr, ptr %3, align 8, !tbaa !7
  %10 = getelementptr inbounds nuw %struct.rb_io, ptr %9, i32 0, i32 19
  %11 = load i64, ptr %10, align 8, !tbaa !55
  %12 = call i64 @rb_mutex_owned_p(i64 noundef %11)
  %13 = icmp ne i64 %12, 0
  br i1 %13, label %14, label %19

14:                                               ; preds = %8
  %15 = load ptr, ptr %3, align 8, !tbaa !7
  %16 = ptrtoint ptr %15 to i64
  %17 = call i64 @io_flush_buffer_async(i64 noundef %16)
  %18 = trunc i64 %17 to i32
  store i32 %18, ptr %2, align 4
  br label %27

19:                                               ; preds = %8, %1
  %20 = load ptr, ptr %3, align 8, !tbaa !7
  %21 = getelementptr inbounds nuw %struct.rb_io, ptr %20, i32 0, i32 19
  %22 = load i64, ptr %21, align 8, !tbaa !55
  %23 = load ptr, ptr %3, align 8, !tbaa !7
  %24 = ptrtoint ptr %23 to i64
  %25 = call i64 @rb_mutex_synchronize(i64 noundef %22, ptr noundef @io_flush_buffer_async, i64 noundef %24)
  %26 = trunc i64 %25 to i32
  store i32 %26, ptr %2, align 4
  br label %27

27:                                               ; preds = %19, %14
  %28 = load i32, ptr %2, align 4
  ret i32 %28
}

; Function Attrs: nounwind sspstrong uwtable
define dso_local void @rb_io_check_closed(ptr noundef %0) #0 {
  %2 = alloca ptr, align 8
  store ptr %0, ptr %2, align 8, !tbaa !7
  %3 = load ptr, ptr %2, align 8, !tbaa !7
  call void @rb_io_check_initialized(ptr noundef %3)
  %4 = load ptr, ptr %2, align 8, !tbaa !7
  %5 = getelementptr inbounds nuw %struct.rb_io, ptr %4, i32 0, i32 2
  %6 = load i32, ptr %5, align 8, !tbaa !15
  call void @io_fd_check_closed(i32 noundef %6)
  ret void
}

; Function Attrs: nounwind sspstrong uwtable
define internal i32 @io_fflush(ptr noundef %0) #0 {
  %2 = alloca i32, align 4
  %3 = alloca ptr, align 8
  store ptr %0, ptr %3, align 8, !tbaa !7
  %4 = load ptr, ptr %3, align 8, !tbaa !7
  call void @rb_io_check_closed(ptr noundef %4)
  %5 = load ptr, ptr %3, align 8, !tbaa !7
  %6 = getelementptr inbounds nuw %struct.rb_io, ptr %5, i32 0, i32 8
  %7 = getelementptr inbounds nuw %struct.rb_io_internal_buffer, ptr %6, i32 0, i32 2
  %8 = load i32, ptr %7, align 4, !tbaa !39
  %9 = icmp eq i32 %8, 0
  br i1 %9, label %10, label %11

10:                                               ; preds = %1
  store i32 0, ptr %2, align 4
  br label %36

11:                                               ; preds = %1
  br label %12

12:                                               ; preds = %33, %11
  %13 = load ptr, ptr %3, align 8, !tbaa !7
  %14 = getelementptr inbounds nuw %struct.rb_io, ptr %13, i32 0, i32 8
  %15 = getelementptr inbounds nuw %struct.rb_io_internal_buffer, ptr %14, i32 0, i32 2
  %16 = load i32, ptr %15, align 4, !tbaa !39
  %17 = icmp sgt i32 %16, 0
  br i1 %17, label %18, label %22

18:                                               ; preds = %12
  %19 = load ptr, ptr %3, align 8, !tbaa !7
  %20 = call i32 @io_flush_buffer(ptr noundef %19)
  %21 = icmp ne i32 %20, 0
  br label %22

22:                                               ; preds = %18, %12
  %23 = phi i1 [ false, %12 ], [ %21, %18 ]
  br i1 %23, label %24, label %35

24:                                               ; preds = %22
  %25 = call ptr @rb_errno_ptr()
  %26 = load i32, ptr %25, align 4, !tbaa !13
  %27 = load ptr, ptr %3, align 8, !tbaa !7
  %28 = getelementptr inbounds nuw %struct.rb_io, ptr %27, i32 0, i32 0
  %29 = load i64, ptr %28, align 8, !tbaa !40
  %30 = call i32 @rb_io_maybe_wait_writable(i32 noundef %26, i64 noundef %29, i64 noundef 4)
  %31 = icmp ne i32 %30, 0
  br i1 %31, label %33, label %32

32:                                               ; preds = %24
  store i32 -1, ptr %2, align 4
  br label %36

33:                                               ; preds = %24
  %34 = load ptr, ptr %3, align 8, !tbaa !7
  call void @rb_io_check_closed(ptr noundef %34)
  br label %12, !llvm.loop !41

35:                                               ; preds = %22
  store i32 0, ptr %2, align 4
  br label %36

36:                                               ; preds = %35, %32, %10
  %37 = load i32, ptr %2, align 4
  ret i32 %37
}