; Function Attrs: nounwind sspstrong uwtable
define internal fastcc range(i32 -1, 1) i32 @io_fflush(ptr noundef %0) unnamed_addr #0 {
  %.not.i.i = icmp eq ptr %0, null
  br i1 %.not.i.i, label %2, label %rb_io_check_initialized.exit.i

2:                                                ; preds = %1
  %3 = load i64, ptr @rb_eIOError, align 8, !tbaa !23
  tail call void (i64, ptr, ...) @rb_raise(i64 noundef %3, ptr noundef nonnull @.str.4) #30
  unreachable

rb_io_check_initialized.exit.i:                   ; preds = %1
  %4 = getelementptr inbounds nuw i8, ptr %0, i64 16
  %5 = load i32, ptr %4, align 8, !tbaa !7
  %6 = icmp slt i32 %5, 0
  br i1 %6, label %7, label %rb_io_check_closed.exit

7:                                                ; preds = %rb_io_check_initialized.exit.i
  tail call void @rb_thread_check_ints() #28
  %8 = load i64, ptr @rb_eIOError, align 8, !tbaa !23
  tail call void (i64, ptr, ...) @rb_raise(i64 noundef %8, ptr noundef nonnull @closed_stream) #30
  unreachable

rb_io_check_closed.exit:                          ; preds = %rb_io_check_initialized.exit.i
  %9 = getelementptr inbounds nuw i8, ptr %0, i64 60
  %10 = load i32, ptr %9, align 4, !tbaa !35
  %11 = icmp sgt i32 %10, 0
  br i1 %11, label %.lr.ph, label %.critedge

.lr.ph:                                           ; preds = %rb_io_check_closed.exit
  %12 = getelementptr inbounds nuw i8, ptr %0, i64 192
  %13 = ptrtoint ptr %0 to i64
  br label %14

14:                                               ; preds = %.lr.ph, %rb_io_check_closed.exit9
  %15 = load i64, ptr %12, align 8, !tbaa !37
  %16 = icmp eq i64 %15, 4
  br i1 %16, label %22, label %17

17:                                               ; preds = %14
  %18 = tail call i64 @rb_mutex_owned_p(i64 noundef %15) #28
  %.not.i = icmp eq i64 %18, 0
  br i1 %.not.i, label %._crit_edge.i, label %19

._crit_edge.i:                                    ; preds = %17
  %.pre.i = load i64, ptr %12, align 8, !tbaa !37
  br label %22

19:                                               ; preds = %17
  %20 = load i32, ptr %4, align 8, !tbaa !7
  %21 = tail call i64 @rb_thread_io_blocking_call(ptr noundef nonnull @io_flush_buffer_sync, ptr noundef nonnull %0, i32 noundef %20, i32 noundef 4) #28
  br label %io_flush_buffer.exit

22:                                               ; preds = %._crit_edge.i, %14
  %23 = phi i64 [ %.pre.i, %._crit_edge.i ], [ 4, %14 ]
  %24 = tail call i64 @rb_mutex_synchronize(i64 noundef %23, ptr noundef nonnull @io_flush_buffer_async, i64 noundef %13) #28
  br label %io_flush_buffer.exit

io_flush_buffer.exit:                             ; preds = %19, %22
  %.0.in.i = phi i64 [ %24, %22 ], [ %21, %19 ]
  %25 = and i64 %.0.in.i, 4294967295
  %.not = icmp eq i64 %25, 0
  br i1 %.not, label %.critedge, label %26

26:                                               ; preds = %io_flush_buffer.exit
  %27 = tail call ptr @rb_errno_ptr() #28
  %28 = load i32, ptr %27, align 4, !tbaa !20
  %29 = load i64, ptr %0, align 8, !tbaa !38
  %30 = tail call i32 @rb_io_maybe_wait_writable(i32 noundef %28, i64 noundef %29, i64 noundef 4)
  %.not6 = icmp eq i32 %30, 0
  br i1 %.not6, label %.critedge, label %rb_io_check_initialized.exit.i8

rb_io_check_initialized.exit.i8:                  ; preds = %26
  %31 = load i32, ptr %4, align 8, !tbaa !7
  %32 = icmp slt i32 %31, 0
  br i1 %32, label %33, label %rb_io_check_closed.exit9

33:                                               ; preds = %rb_io_check_initialized.exit.i8
  tail call void @rb_thread_check_ints() #28
  %34 = load i64, ptr @rb_eIOError, align 8, !tbaa !23
  tail call void (i64, ptr, ...) @rb_raise(i64 noundef %34, ptr noundef nonnull @closed_stream) #30
  unreachable

rb_io_check_closed.exit9:                         ; preds = %rb_io_check_initialized.exit.i8
  %.pr = load i32, ptr %9, align 4, !tbaa !35
  %35 = icmp sgt i32 %.pr, 0
  br i1 %35, label %14, label %.critedge, !llvm.loop !39

.critedge:                                        ; preds = %26, %rb_io_check_closed.exit9, %io_flush_buffer.exit, %rb_io_check_closed.exit
  %.0 = phi i32 [ 0, %rb_io_check_closed.exit ], [ -1, %26 ], [ 0, %rb_io_check_closed.exit9 ], [ 0, %io_flush_buffer.exit ]
  ret i32 %.0
}